target datalayout = "e-m:e-p270:32:32-p271:32:32-p272:64:64-i64:64-i128:128-f80:128-n8:16:32:64-S128"
target triple = "x86_64-unknown-linux-gnu"

%"class.boost::detail::shared_count" = type { ptr }
%"class.QuantLib::Null" = type { i8 }
%"class.QuantLib::CrankNicolsonScheme" = type { double, double, %"class.boost::shared_ptr.18", %"class.boost::shared_ptr.19" }
%"class.boost::shared_ptr.18" = type { ptr, %"class.boost::detail::shared_count" }
%"class.boost::shared_ptr.19" = type { ptr, %"class.boost::detail::shared_count" }

; Function Attrs: mustprogress nounwind uwtable
define linkonce_odr noundef float @_ZNSt14numeric_limitsIfE3maxEv() #5 comdat align 2 {
entry:
  ret float 0x47EFFFFFE0000000
}

; Function Attrs: mustprogress nounwind uwtable
define linkonce_odr noundef float @_ZN8QuantLib6detail17FloatingPointNullILb1EE9nullValueEv() #5 comdat align 2 {
entry:
  %call = call noundef float @_ZNSt14numeric_limitsIfE3maxEv() #10
  ret float %call
}

; Function Attrs: mustprogress uwtable
define linkonce_odr noundef double @_ZNK8QuantLib4NullIdEcvdEv(ptr noundef nonnull align 1 dereferenceable(1) %this) #3 comdat align 2 {
entry:
  %this.addr = alloca ptr, align 8
  store ptr %this, ptr %this.addr, align 8, !tbaa !3
  %call = call noundef float @_ZN8QuantLib6detail17FloatingPointNullILb1EE9nullValueEv()
  %conv = fpext float %call to double
  ret double %conv
}

; Function Attrs: mustprogress uwtable
define void @_ZN8QuantLib19CrankNicolsonSchemeC2EdRKN5boost10shared_ptrINS_20FdmLinearOpCompositeEEERKSt6vectorINS2_INS_17BoundaryConditionINS_11FdmLinearOpEEEEESaISB_EEdNS_19ImplicitEulerScheme10SolverTypeE(ptr noundef nonnull align 8 dereferenceable(48) %this, double noundef %theta, ptr noundef nonnull align 8 dereferenceable(16) %map, ptr noundef nonnull align 8 dereferenceable(24) %bcSet, double noundef %relTol, i32 noundef %solverType) unnamed_addr #3 align 2 personality ptr @__gxx_personality_v0 {
entry:
  %this.addr = alloca ptr, align 8
  %theta.addr = alloca double, align 8
  %map.addr = alloca ptr, align 8
  %bcSet.addr = alloca ptr, align 8
  %relTol.addr = alloca double, align 8
  %solverType.addr = alloca i32, align 4
  %ref.tmp = alloca %"class.QuantLib::Null", align 1
  %exn.slot = alloca ptr, align 8
  %ehselector.slot = alloca i32, align 4
  store ptr %this, ptr %this.addr, align 8, !tbaa !3
  store double %theta, ptr %theta.addr, align 8, !tbaa !9
  store ptr %map, ptr %map.addr, align 8, !tbaa !3
  store ptr %bcSet, ptr %bcSet.addr, align 8, !tbaa !3
  store double %relTol, ptr %relTol.addr, align 8, !tbaa !9
  store i32 %solverType, ptr %solverType.addr, align 4, !tbaa !11
  %this1 = load ptr, ptr %this.addr, align 8
  %dt_ = getelementptr inbounds nuw %"class.QuantLib::CrankNicolsonScheme", ptr %this1, i32 0, i32 0
  call void @llvm.lifetime.start.p0(i64 1, ptr %ref.tmp) #10
  %call = call noundef double @_ZNK8QuantLib4NullIdEcvdEv(ptr noundef nonnull align 1 dereferenceable(1) %ref.tmp)
  call void @llvm.lifetime.end.p0(i64 1, ptr %ref.tmp) #10
  store double %call, ptr %dt_, align 8, !tbaa !13
  %theta_ = getelementptr inbounds nuw %"class.QuantLib::CrankNicolsonScheme", ptr %this1, i32 0, i32 1
  %0 = load double, ptr %theta.addr, align 8, !tbaa !9
  store double %0, ptr %theta_, align 8, !tbaa !18
  %explicit_ = getelementptr inbounds nuw %"class.QuantLib::CrankNicolsonScheme", ptr %this1, i32 0, i32 2
  %1 = load ptr, ptr %map.addr, align 8, !tbaa !3
  %2 = load ptr, ptr %bcSet.addr, align 8, !tbaa !3
  call void @_ZN5boost11make_sharedIN8QuantLib19ExplicitEulerSchemeEJRKNS_10shared_ptrINS1_20FdmLinearOpCompositeEEERKSt6vectorINS3_INS1_17BoundaryConditionINS1_11FdmLinearOpEEEEESaISC_EEEEENS_6detail15sp_if_not_arrayIT_E4typeEDpOT0_(ptr dead_on_unwind writable sret(%"class.boost::shared_ptr.18") align 8 %explicit_, ptr noundef nonnull align 8 dereferenceable(16) %1, ptr noundef nonnull align 8 dereferenceable(24) %2)
  %implicit_ = getelementptr inbounds nuw %"class.QuantLib::CrankNicolsonScheme", ptr %this1, i32 0, i32 3
  %3 = load ptr, ptr %map.addr, align 8, !tbaa !3
  %4 = load ptr, ptr %bcSet.addr, align 8, !tbaa !3
  invoke void @_ZN5boost11make_sharedIN8QuantLib19ImplicitEulerSchemeEJRKNS_10shared_ptrINS1_20FdmLinearOpCompositeEEERKSt6vectorINS3_INS1_17BoundaryConditionINS1_11FdmLinearOpEEEEESaISC_EERdRNS2_10SolverTypeEEEENS_6detail15sp_if_not_arrayIT_E4typeEDpOT0_(ptr dead_on_unwind writable sret(%"class.boost::shared_ptr.19") align 8 %implicit_, ptr noundef nonnull align 8 dereferenceable(16) %3, ptr noundef nonnull align 8 dereferenceable(24) %4, ptr noundef nonnull align 8 dereferenceable(8) %relTol.addr, ptr noundef nonnull align 4 dereferenceable(4) %solverType.addr)
          to label %invoke.cont unwind label %lpad

invoke.cont:                                      ; preds = %entry
  ret void

lpad:                                             ; preds = %entry
  %5 = landingpad { ptr, i32 }
          cleanup
  %6 = extractvalue { ptr, i32 } %5, 0
  store ptr %6, ptr %exn.slot, align 8
  %7 = extractvalue { ptr, i32 } %5, 1
  store i32 %7, ptr %ehselector.slot, align 4
  call void @_ZN5boost10shared_ptrIN8QuantLib19ExplicitEulerSchemeEED2Ev(ptr noundef nonnull align 8 dereferenceable(16) %explicit_) #10
  br label %eh.resume

eh.resume:                                        ; preds = %lpad
  %exn = load ptr, ptr %exn.slot, align 8
  %sel = load i32, ptr %ehselector.slot, align 4
  %lpad.val = insertvalue { ptr, i32 } poison, ptr %exn, 0
  %lpad.val2 = insertvalue { ptr, i32 } %lpad.val, i32 %sel, 1
  resume { ptr, i32 } %lpad.val2
}