; Function Attrs: mustprogress uwtable
define void @_ZN8QuantLib19CrankNicolsonSchemeC2EdRKN5boost10shared_ptrINS_20FdmLinearOpCompositeEEERKSt6vectorINS2_INS_17BoundaryConditionINS_11FdmLinearOpEEEEESaISB_EEdNS_19ImplicitEulerScheme10SolverTypeE(ptr noundef nonnull align 8 dereferenceable(48) %this, double noundef %theta, ptr noundef nonnull align 8 dereferenceable(16) %map, ptr noundef nonnull align 8 dereferenceable(24) %bcSet, double noundef %relTol, i32 noundef %solverType) unnamed_addr #3 align 2 personality ptr @__gxx_personality_v0 {
entry:
  %relTol.addr = alloca double, align 8
  %solverType.addr = alloca i32, align 4
  store double %relTol, ptr %relTol.addr, align 8, !tbaa !18
  store i32 %solverType, ptr %solverType.addr, align 4, !tbaa !20
  store double 0x47EFFFFFE0000000, ptr %this, align 8, !tbaa !22
  %theta_ = getelementptr inbounds nuw i8, ptr %this, i64 8
  store double %theta, ptr %theta_, align 8, !tbaa !26
  %explicit_ = getelementptr inbounds nuw i8, ptr %this, i64 16
  tail call void @_ZN5boost11make_sharedIN8QuantLib19ExplicitEulerSchemeEJRKNS_10shared_ptrINS1_20FdmLinearOpCompositeEEERKSt6vectorINS3_INS1_17BoundaryConditionINS1_11FdmLinearOpEEEEESaISC_EEEEENS_6detail15sp_if_not_arrayIT_E4typeEDpOT0_(ptr dead_on_unwind nonnull writable sret(%"class.boost::shared_ptr.18") align 8 %explicit_, ptr noundef nonnull align 8 dereferenceable(16) %map, ptr noundef nonnull align 8 dereferenceable(24) %bcSet)
  %implicit_ = getelementptr inbounds nuw i8, ptr %this, i64 32
  invoke void @_ZN5boost11make_sharedIN8QuantLib19ImplicitEulerSchemeEJRKNS_10shared_ptrINS1_20FdmLinearOpCompositeEEERKSt6vectorINS3_INS1_17BoundaryConditionINS1_11FdmLinearOpEEEEESaISC_EERdRNS2_10SolverTypeEEEENS_6detail15sp_if_not_arrayIT_E4typeEDpOT0_(ptr dead_on_unwind nonnull writable sret(%"class.boost::shared_ptr.19") align 8 %implicit_, ptr noundef nonnull align 8 dereferenceable(16) %map, ptr noundef nonnull align 8 dereferenceable(24) %bcSet, ptr noundef nonnull align 8 dereferenceable(8) %relTol.addr, ptr noundef nonnull align 4 dereferenceable(4) %solverType.addr)
          to label %invoke.cont unwind label %lpad

invoke.cont:                                      ; preds = %entry
  ret void

lpad:                                             ; preds = %entry
  %0 = landingpad { ptr, i32 }
          cleanup
  call void @_ZN5boost10shared_ptrIN8QuantLib19ExplicitEulerSchemeEED2Ev(ptr noundef nonnull align 8 dereferenceable(16) %explicit_) #17
  resume { ptr, i32 } %0
}